; Function Attrs: mustprogress uwtable
define void @_ZN8LightGBM8Metadata13InsertWeightsEPKfii(ptr noundef nonnull align 8 dereferenceable(300) %0, ptr noundef readonly %1, i32 noundef %2, i32 noundef %3) local_unnamed_addr #8 align 2 personality ptr @__gxx_personality_v0 {
  %.not = icmp eq ptr %1, null
  br i1 %.not, label %5, label %6

5:                                                ; preds = %4
  tail call void (ptr, ...) @_ZN8LightGBM3Log5FatalEPKcz(ptr noundef nonnull @.str.33)
  br label %6

6:                                                ; preds = %5, %4
  %7 = getelementptr inbounds nuw i8, ptr %0, i64 36
  %8 = load i32, ptr %7, align 4, !tbaa !14
  %9 = icmp slt i32 %8, 1
  br i1 %9, label %10, label %11

10:                                               ; preds = %6
  tail call void (ptr, ...) @_ZN8LightGBM3Log5FatalEPKcz(ptr noundef nonnull @.str.34)
  %.pre = load i32, ptr %7, align 4, !tbaa !14
  br label %11

11:                                               ; preds = %10, %6
  %12 = phi i32 [ %.pre, %10 ], [ %8, %6 ]
  %13 = add nsw i32 %3, %2
  %14 = icmp sgt i32 %13, %12
  br i1 %14, label %15, label %16

15:                                               ; preds = %11
  tail call void (ptr, ...) @_ZN8LightGBM3Log5FatalEPKcz(ptr noundef nonnull @.str.35)
  br label %16

16:                                               ; preds = %15, %11
  %17 = getelementptr inbounds nuw i8, ptr %0, i64 72
  %18 = load ptr, ptr %17, align 8, !tbaa !99
  %19 = getelementptr inbounds nuw i8, ptr %0, i64 80
  %20 = load ptr, ptr %19, align 8, !tbaa !99
  %21 = icmp eq ptr %18, %20
  br i1 %21, label %22, label %_ZNSt6vectorIfSaIfEE6resizeEm.exit

22:                                               ; preds = %16
  %23 = load i32, ptr %7, align 4, !tbaa !14
  %.not7 = icmp eq i32 %23, 0
  br i1 %.not7, label %_ZNSt6vectorIfSaIfEE6resizeEm.exit, label %24

24:                                               ; preds = %22
  %25 = sext i32 %23 to i64
  tail call void @_ZNSt6vectorIfSaIfEE17_M_default_appendEm(ptr noundef nonnull align 8 dereferenceable(24) %17, i64 noundef %25)
  %.pre6 = load ptr, ptr %17, align 8, !tbaa !70
  br label %_ZNSt6vectorIfSaIfEE6resizeEm.exit

_ZNSt6vectorIfSaIfEE6resizeEm.exit:               ; preds = %22, %24, %16
  %26 = phi ptr [ %.pre6, %24 ], [ %18, %16 ], [ %18, %22 ]
  %27 = sext i32 %2 to i64
  %28 = getelementptr inbounds float, ptr %26, i64 %27
  %29 = sext i32 %3 to i64
  %30 = shl nsw i64 %29, 2
  tail call void @llvm.memcpy.p0.p0.i64(ptr align 4 %28, ptr align 4 %1, i64 %30, i1 false)
  %31 = getelementptr inbounds nuw i8, ptr %0, i64 296
  store i8 0, ptr %31, align 8, !tbaa !73
  ret void
}